; Function Attrs: mustprogress uwtable
define internal fastcc void @_ZN7rocksdb12_GLOBAL__N_115PosixFileSystemC2Ev(ptr noundef nonnull align 8 dereferenceable(57) %this) unnamed_addr #5 align 2 personality ptr @__gxx_personality_v0 {
entry:
  tail call void @_ZN7rocksdb10FileSystemC2Ev(ptr noundef nonnull align 8 dereferenceable(32) %this)
  store ptr getelementptr inbounds ({ [65 x ptr] }, ptr @_ZTVN7rocksdb12_GLOBAL__N_115PosixFileSystemE, i64 0, i32 0, i64 2), ptr %this, align 8
  %forceMmapOff_ = getelementptr inbounds i8, ptr %this, i64 32
  store i8 0, ptr %forceMmapOff_, align 8
  %thread_local_io_urings_ = getelementptr inbounds i8, ptr %this, i64 40
  store ptr null, ptr %thread_local_io_urings_, align 8
  %page_size_ = getelementptr inbounds i8, ptr %this, i64 48
  %call = tail call i32 @getpagesize() #34
  %conv = sext i32 %call to i64
  store i64 %conv, ptr %page_size_, align 8
  %allow_non_owner_access_ = getelementptr inbounds i8, ptr %this, i64 56
  store i8 1, ptr %allow_non_owner_access_, align 8
  %call.i3 = invoke noalias noundef nonnull dereferenceable(216) ptr @_Znwm(i64 noundef 216) #31
          to label %call.i.noexc unwind label %lpad

call.i.noexc:                                     ; preds = %entry
  %call1.i4 = invoke i32 @io_uring_queue_init(i32 noundef 256, ptr noundef nonnull %call.i3, i32 noundef 0)
          to label %call1.i.noexc unwind label %lpad

call1.i.noexc:                                    ; preds = %call.i.noexc
  %tobool.not.i = icmp eq i32 %call1.i4, 0
  br i1 %tobool.not.i, label %if.then, label %if.end

if.then:                                          ; preds = %call1.i.noexc
  %call5 = invoke noalias noundef nonnull dereferenceable(4) ptr @_Znwm(i64 noundef 4) #31
          to label %invoke.cont4 unwind label %lpad

invoke.cont4:                                     ; preds = %if.then
  invoke void @_ZN7rocksdb14ThreadLocalPtrC1EPFvPvE(ptr noundef nonnull align 4 dereferenceable(4) %call5, ptr noundef nonnull @_ZN7rocksdb13DeleteIOUringEPv)
          to label %invoke.cont7 unwind label %lpad6

invoke.cont7:                                     ; preds = %invoke.cont4
  %0 = load ptr, ptr %thread_local_io_urings_, align 8
  store ptr %call5, ptr %thread_local_io_urings_, align 8
  %tobool.not.i.i = icmp eq ptr %0, null
  br i1 %tobool.not.i.i, label %if.end, label %_ZNKSt14default_deleteIN7rocksdb14ThreadLocalPtrEEclEPS1_.exit.i.i

_ZNKSt14default_deleteIN7rocksdb14ThreadLocalPtrEEclEPS1_.exit.i.i: ; preds = %invoke.cont7
  tail call void @_ZN7rocksdb14ThreadLocalPtrD1Ev(ptr noundef nonnull align 4 dereferenceable(4) %0) #29
  tail call void @_ZdlPv(ptr noundef nonnull %0) #32
  br label %if.end

lpad:                                             ; preds = %call.i.noexc, %entry, %if.then
  %1 = landingpad { ptr, i32 }
          cleanup
  br label %ehcleanup

lpad6:                                            ; preds = %invoke.cont4
  %2 = landingpad { ptr, i32 }
          cleanup
  tail call void @_ZdlPv(ptr noundef nonnull %call5) #32
  br label %ehcleanup

if.end:                                           ; preds = %_ZNKSt14default_deleteIN7rocksdb14ThreadLocalPtrEEclEPS1_.exit.i.i, %invoke.cont7, %call1.i.noexc
  tail call void @_ZdlPv(ptr noundef nonnull %call.i3) #32
  ret void

ehcleanup:                                        ; preds = %lpad6, %lpad
  %.pn = phi { ptr, i32 } [ %2, %lpad6 ], [ %1, %lpad ]
  tail call void @_ZNSt10unique_ptrIN7rocksdb14ThreadLocalPtrESt14default_deleteIS1_EED2Ev(ptr noundef nonnull align 8 dereferenceable(8) %thread_local_io_urings_) #29
  tail call void @_ZN7rocksdb10FileSystemD2Ev(ptr noundef nonnull align 8 dereferenceable(32) %this) #29
  resume { ptr, i32 } %.pn
}